; Function Attrs: nofree nosync nounwind memory(read, inaccessiblemem: none) uwtable
define i64 @Gia_LutComputeTruth6Map(ptr noundef %0, i32 noundef %1, ptr noundef %2) local_unnamed_addr #0 {
  %4 = getelementptr i8, ptr %0, i64 32
  %.val8 = load ptr, ptr %4, align 8, !tbaa !3
  %5 = getelementptr i8, ptr %0, i64 72
  %.val9 = load ptr, ptr %5, align 8, !tbaa !29
  %6 = getelementptr i8, ptr %.val9, i64 8
  %.val9.val = load ptr, ptr %6, align 8, !tbaa !30
  %7 = sext i32 %1 to i64
  %8 = getelementptr inbounds i32, ptr %.val9.val, i64 %7
  %9 = load i32, ptr %8, align 4, !tbaa !31
  %10 = sext i32 %9 to i64
  %11 = getelementptr inbounds %struct.Gia_Obj_t_, ptr %.val8, i64 %10
  %.val.i = load i64, ptr %11, align 4
  %12 = trunc i64 %.val.i to i32
  %13 = and i32 %12, 536870911
  %14 = sub nsw i32 %9, %13
  %15 = tail call i64 @Gia_LutComputeTruth6Map_rec(ptr noundef %0, i32 noundef %14, ptr noundef %2)
  %16 = shl i32 %12, 2
  %17 = ashr i32 %16, 31
  %18 = sext i32 %17 to i64
  %19 = xor i64 %15, %18
  ret i64 %19
}